; Function Attrs: nounwind uwtable
define void @Gia_GenerateCexes(ptr noundef %0, ptr noundef %1, i32 noundef %2, i32 noundef %3, i32 noundef %4, i32 noundef %5, i32 noundef %6, i32 noundef %7, i32 noundef %8, i32 noundef %9) local_unnamed_addr #0 {
  %11 = alloca [3 x ptr], align 16
  %12 = tail call i32 @Abc_Random(i32 noundef 1) #27
  call void @llvm.lifetime.start.p0(i64 24, ptr nonnull %11) #27
  call void @llvm.memset.p0.i64(ptr noundef nonnull align 16 dereferenceable(24) %11, i8 0, i64 24, i1 false)
  %13 = call ptr @Min_ManComputeCexes(ptr noundef %1, ptr noundef null, i32 noundef %2, i32 noundef %3, ptr noundef nonnull %11, i32 noundef %4, i32 noundef %5, i32 noundef %8)
  %.not = icmp eq i32 %7, 0
  br i1 %.not, label %15, label %14

14:                                               ; preds = %10
  tail call void @Gia_GenerateCexesDumpBlif(ptr noundef %0, ptr noundef %1, ptr noundef %13)
  br label %.preheader

15:                                               ; preds = %10
  tail call void @Gia_GenerateCexesDumpFile(ptr noundef %0, ptr noundef %1, ptr noundef %13, i32 noundef %6)
  br label %.preheader

.preheader:                                       ; preds = %15, %14
  br label %16

16:                                               ; preds = %.preheader, %Vec_IntFreeP.exit
  %indvars.iv = phi i64 [ %indvars.iv.next, %Vec_IntFreeP.exit ], [ 0, %.preheader ]
  %17 = getelementptr inbounds nuw [3 x ptr], ptr %11, i64 0, i64 %indvars.iv
  %18 = load ptr, ptr %17, align 8, !tbaa !105
  %19 = icmp eq ptr %18, null
  br i1 %19, label %Vec_IntFreeP.exit, label %20

20:                                               ; preds = %16
  %21 = getelementptr inbounds nuw i8, ptr %18, i64 8
  %22 = load ptr, ptr %21, align 8, !tbaa !32
  %.not.i = icmp eq ptr %22, null
  br i1 %.not.i, label %23, label %.thread.i

.thread.i:                                        ; preds = %20
  tail call void @free(ptr noundef nonnull %22) #27
  br label %23

23:                                               ; preds = %.thread.i, %20
  tail call void @free(ptr noundef nonnull %18) #27
  store ptr null, ptr %17, align 8, !tbaa !105
  br label %Vec_IntFreeP.exit

Vec_IntFreeP.exit:                                ; preds = %16, %23
  %indvars.iv.next = add nuw nsw i64 %indvars.iv, 1
  %exitcond.not = icmp eq i64 %indvars.iv.next, 3
  br i1 %exitcond.not, label %24, label %16, !llvm.loop !182

24:                                               ; preds = %Vec_IntFreeP.exit
  %25 = load i32, ptr %13, align 8, !tbaa !103
  %26 = icmp sgt i32 %25, 0
  %27 = getelementptr inbounds nuw i8, ptr %13, i64 8
  %.pre.i.i = load ptr, ptr %27, align 8, !tbaa !95
  br i1 %26, label %.lr.ph.i.i.preheader, label %._crit_edge.i.i

.lr.ph.i.i.preheader:                             ; preds = %24
  %28 = zext nneg i32 %25 to i64
  br label %.lr.ph.i.i

.lr.ph.i.i:                                       ; preds = %.lr.ph.i.i.preheader, %32
  %indvars.iv.i.i = phi i64 [ %indvars.iv.next.i.i, %32 ], [ 0, %.lr.ph.i.i.preheader ]
  %29 = getelementptr inbounds nuw %struct.Vec_Int_t_, ptr %.pre.i.i, i64 %indvars.iv.i.i, i32 2
  %30 = load ptr, ptr %29, align 8, !tbaa !32
  %.not15.i.i = icmp eq ptr %30, null
  br i1 %.not15.i.i, label %32, label %31

31:                                               ; preds = %.lr.ph.i.i
  tail call void @free(ptr noundef nonnull %30) #27
  store ptr null, ptr %29, align 8, !tbaa !32
  br label %32

32:                                               ; preds = %31, %.lr.ph.i.i
  %indvars.iv.next.i.i = add nuw nsw i64 %indvars.iv.i.i, 1
  %exitcond19.not = icmp eq i64 %indvars.iv.next.i.i, %28
  br i1 %exitcond19.not, label %._crit_edge.thread.i.i, label %.lr.ph.i.i, !llvm.loop !165

._crit_edge.i.i:                                  ; preds = %24
  %.not.i.i = icmp eq ptr %.pre.i.i, null
  br i1 %.not.i.i, label %Vec_WecFree.exit, label %._crit_edge.thread.i.i

._crit_edge.thread.i.i:                           ; preds = %32, %._crit_edge.i.i
  tail call void @free(ptr noundef nonnull %.pre.i.i) #27
  br label %Vec_WecFree.exit

Vec_WecFree.exit:                                 ; preds = %._crit_edge.i.i, %._crit_edge.thread.i.i
  tail call void @free(ptr noundef nonnull %13) #27
  call void @llvm.lifetime.end.p0(i64 24, ptr nonnull %11) #27
  ret void
}